Certificate:
    Data:
        Version: 3 (0x2)
        Serial Number: 1 (0x1)
        Signature Algorithm: sha1WithRSAEncryption
        Issuer: C=US, ST=NC, L=Raleigh, O=Catalog Service Testsuite, OU=Eng, CN=Eng/emailAddress=eng@rpath.com
        Validity
            Not Before: Jul 22 18:12:05 2010 GMT
            Not After : Jul 22 18:12:05 2011 GMT
        Subject: C=US, ST=NC, L=Raleigh, O=Catalog Service testsuite, OU=Eng, CN=Eng/emailAddress=eng@rpath.com
        Subject Public Key Info:
            Public Key Algorithm: rsaEncryption
            RSA Public Key: (1024 bit)
                Modulus (1024 bit):
                    00:bd:c7:91:18:8f:e5:44:09:7b:ca:52:17:9c:b7:
                    5f:7c:2d:34:69:6f:e1:6d:3f:9e:47:6a:a4:13:07:
                    b0:3d:58:f4:6c:8f:38:e3:86:d6:6c:dc:df:e1:03:
                    35:26:fb:4f:71:75:29:d2:27:75:a1:86:16:c9:2e:
                    20:84:4a:70:25:0f:18:b1:6e:a4:ac:95:96:42:18:
                    12:6b:15:1c:11:c7:32:a8:29:16:e8:e8:88:4d:d7:
                    d2:cd:2f:05:88:c3:1a:e9:c9:e9:53:21:39:5c:b7:
                    07:11:b5:ec:ca:4f:cf:4f:88:63:8b:45:61:81:2e:
                    92:ad:c7:9a:75:c5:68:6e:a5
                Exponent: 65537 (0x10001)
        X509v3 extensions:
            X509v3 Basic Constraints: 
                CA:FALSE
            Netscape Comment: 
                OpenSSL Generated Certificate
            X509v3 Subject Key Identifier: 
                92:95:19:F0:D0:BD:86:54:04:FE:A3:0C:DB:92:65:6C:92:C8:3D:52
            X509v3 Authority Key Identifier: 
                keyid:CC:25:8B:B0:1C:DD:5F:54:53:8D:65:84:67:22:9C:91:EA:67:CB:05

    Signature Algorithm: sha1WithRSAEncryption
        46:44:b2:1b:a7:d8:8a:5c:19:67:b0:21:fd:ac:89:1e:15:6f:
        d7:bc:64:ba:9a:59:cd:67:e4:94:09:da:35:2a:af:8e:d4:fd:
        77:5f:b3:0b:95:ec:9b:f6:7a:18:a1:6d:4e:bb:47:c0:92:8d:
        0e:e9:f7:14:25:b0:ef:02:d8:4d:f9:e3:bb:e3:ba:9f:4d:9c:
        68:fc:22:c8:7e:c5:25:a3:82:c8:eb:8a:5f:80:bd:93:22:07:
        39:15:1c:79:c0:54:00:c1:d9:56:b7:ad:9e:ed:fe:a7:fc:fe:
        f1:5e:e5:81:c8:5a:07:37:d5:f0:96:19:05:d0:a2:12:76:06:
        ac:7c
-----BEGIN CERTIFICATE-----
MIIDBzCCAnCgAwIBAgIBATANBgkqhkiG9w0BAQUFADCBijELMAkGA1UEBhMCVVMx
CzAJBgNVBAgTAk5DMRAwDgYDVQQHEwdSYWxlaWdoMSIwIAYDVQQKExlDYXRhbG9n
IFNlcnZpY2UgVGVzdHN1aXRlMQwwCgYDVQQLEwNFbmcxDDAKBgNVBAMTA0VuZzEc
MBoGCSqGSIb3DQEJARYNZW5nQHJwYXRoLmNvbTAeFw0xMDA3MjIxODEyMDVaFw0x
MTA3MjIxODEyMDVaMIGKMQswCQYDVQQGEwJVUzELMAkGA1UECBMCTkMxEDAOBgNV
BAcTB1JhbGVpZ2gxIjAgBgNVBAoTGUNhdGFsb2cgU2VydmljZSB0ZXN0c3VpdGUx
DDAKBgNVBAsTA0VuZzEMMAoGA1UEAxMDRW5nMRwwGgYJKoZIhvcNAQkBFg1lbmdA
cnBhdGguY29tMIGfMA0GCSqGSIb3DQEBAQUAA4GNADCBiQKBgQC9x5EYj+VECXvK
Uhect198LTRpb+FtP55HaqQTB7A9WPRsjzjjhtZs3N/hAzUm+09xdSnSJ3WhhhbJ
LiCESnAlDxixbqSslZZCGBJrFRwRxzKoKRbo6IhN19LNLwWIwxrpyelTITlctwcR
tezKT89PiGOLRWGBLpKtx5p1xWhupQIDAQABo3sweTAJBgNVHRMEAjAAMCwGCWCG
SAGG+EIBDQQfFh1PcGVuU1NMIEdlbmVyYXRlZCBDZXJ0aWZpY2F0ZTAdBgNVHQ4E
FgQUkpUZ8NC9hlQE/qMM25JlbJLIPVIwHwYDVR0jBBgwFoAUzCWLsBzdX1RTjWWE
ZyKckepnywUwDQYJKoZIhvcNAQEFBQADgYEARkSyG6fYilwZZ7Ah/ayJHhVv17xk
uppZzWfklAnaNSqvjtT9d1+zC5Xsm/Z6GKFtTrtHwJKNDun3FCWw7wLYTfnju+O6
n02caPwiyH7FJaOCyOuKX4C9kyIHORUcecBUAMHZVretnu3+p/z+8V7lgchaBzfV
8JYZBdCiEnYGrHw=
-----END CERTIFICATE-----
